target datalayout = "e-m:e-p270:32:32-p271:32:32-p272:64:64-i64:64-i128:128-f80:128-n8:16:32:64-S128"
target triple = "x86_64-pc-linux-gnu"

; Function Attrs: alwaysinline nounwind willreturn memory(none) uwtable
define internal zeroext i8 @av_clip_uint8_c(i32 noundef %0) #7 {
  %2 = alloca i8, align 1
  %3 = alloca i32, align 4
  store i32 %0, ptr %3, align 4, !tbaa !13
  %4 = load i32, ptr %3, align 4, !tbaa !13
  %5 = and i32 %4, -256
  %6 = icmp ne i32 %5, 0
  br i1 %6, label %7, label %12

7:                                                ; preds = %1
  %8 = load i32, ptr %3, align 4, !tbaa !13
  %9 = xor i32 %8, -1
  %10 = ashr i32 %9, 31
  %11 = trunc i32 %10 to i8
  store i8 %11, ptr %2, align 1
  br label %15

12:                                               ; preds = %1
  %13 = load i32, ptr %3, align 4, !tbaa !13
  %14 = trunc i32 %13 to i8
  store i8 %14, ptr %2, align 1
  br label %15

15:                                               ; preds = %12, %7
  %16 = load i8, ptr %2, align 1
  ret i8 %16
}

; Function Attrs: alwaysinline nounwind uwtable
define internal void @vp3_v_loop_filter_c(ptr noundef %0, i64 noundef %1, ptr noundef %2, i32 noundef %3) #1 {
  %5 = alloca ptr, align 8
  %6 = alloca i64, align 8
  %7 = alloca ptr, align 8
  %8 = alloca i32, align 4
  %9 = alloca ptr, align 8
  %10 = alloca i32, align 4
  %11 = alloca i64, align 8
  store ptr %0, ptr %5, align 8, !tbaa !4
  store i64 %1, ptr %6, align 8, !tbaa !9
  store ptr %2, ptr %7, align 8, !tbaa !21
  store i32 %3, ptr %8, align 4, !tbaa !13
  call void @llvm.lifetime.start.p0(i64 8, ptr %9) #9
  call void @llvm.lifetime.start.p0(i64 4, ptr %10) #9
  call void @llvm.lifetime.start.p0(i64 8, ptr %11) #9
  %12 = load i64, ptr %6, align 8, !tbaa !9
  %13 = sub nsw i64 0, %12
  store i64 %13, ptr %11, align 8, !tbaa !9
  %14 = load ptr, ptr %5, align 8, !tbaa !4
  %15 = load i32, ptr %8, align 4, !tbaa !13
  %16 = sext i32 %15 to i64
  %17 = getelementptr inbounds i8, ptr %14, i64 %16
  store ptr %17, ptr %9, align 8, !tbaa !4
  br label %18

18:                                               ; preds = %74, %4
  %19 = load ptr, ptr %5, align 8, !tbaa !4
  %20 = load ptr, ptr %9, align 8, !tbaa !4
  %21 = icmp ult ptr %19, %20
  br i1 %21, label %22, label %77

22:                                               ; preds = %18
  %23 = load ptr, ptr %5, align 8, !tbaa !4
  %24 = load i64, ptr %11, align 8, !tbaa !9
  %25 = mul nsw i64 2, %24
  %26 = getelementptr inbounds i8, ptr %23, i64 %25
  %27 = load i8, ptr %26, align 1, !tbaa !19
  %28 = zext i8 %27 to i32
  %29 = load ptr, ptr %5, align 8, !tbaa !4
  %30 = load i64, ptr %6, align 8, !tbaa !9
  %31 = getelementptr inbounds i8, ptr %29, i64 %30
  %32 = load i8, ptr %31, align 1, !tbaa !19
  %33 = zext i8 %32 to i32
  %34 = sub nsw i32 %28, %33
  %35 = load ptr, ptr %5, align 8, !tbaa !4
  %36 = getelementptr inbounds i8, ptr %35, i64 0
  %37 = load i8, ptr %36, align 1, !tbaa !19
  %38 = zext i8 %37 to i32
  %39 = load ptr, ptr %5, align 8, !tbaa !4
  %40 = load i64, ptr %11, align 8, !tbaa !9
  %41 = getelementptr inbounds i8, ptr %39, i64 %40
  %42 = load i8, ptr %41, align 1, !tbaa !19
  %43 = zext i8 %42 to i32
  %44 = sub nsw i32 %38, %43
  %45 = mul nsw i32 %44, 3
  %46 = add nsw i32 %34, %45
  store i32 %46, ptr %10, align 4, !tbaa !13
  %47 = load ptr, ptr %7, align 8, !tbaa !21
  %48 = load i32, ptr %10, align 4, !tbaa !13
  %49 = add nsw i32 %48, 4
  %50 = ashr i32 %49, 3
  %51 = sext i32 %50 to i64
  %52 = getelementptr inbounds i32, ptr %47, i64 %51
  %53 = load i32, ptr %52, align 4, !tbaa !13
  store i32 %53, ptr %10, align 4, !tbaa !13
  %54 = load ptr, ptr %5, align 8, !tbaa !4
  %55 = load i64, ptr %11, align 8, !tbaa !9
  %56 = getelementptr inbounds i8, ptr %54, i64 %55
  %57 = load i8, ptr %56, align 1, !tbaa !19
  %58 = zext i8 %57 to i32
  %59 = load i32, ptr %10, align 4, !tbaa !13
  %60 = add nsw i32 %58, %59
  %61 = call zeroext i8 @av_clip_uint8_c(i32 noundef %60) #10
  %62 = load ptr, ptr %5, align 8, !tbaa !4
  %63 = load i64, ptr %11, align 8, !tbaa !9
  %64 = getelementptr inbounds i8, ptr %62, i64 %63
  store i8 %61, ptr %64, align 1, !tbaa !19
  %65 = load ptr, ptr %5, align 8, !tbaa !4
  %66 = getelementptr inbounds i8, ptr %65, i64 0
  %67 = load i8, ptr %66, align 1, !tbaa !19
  %68 = zext i8 %67 to i32
  %69 = load i32, ptr %10, align 4, !tbaa !13
  %70 = sub nsw i32 %68, %69
  %71 = call zeroext i8 @av_clip_uint8_c(i32 noundef %70) #10
  %72 = load ptr, ptr %5, align 8, !tbaa !4
  %73 = getelementptr inbounds i8, ptr %72, i64 0
  store i8 %71, ptr %73, align 1, !tbaa !19
  br label %74

74:                                               ; preds = %22
  %75 = load ptr, ptr %5, align 8, !tbaa !4
  %76 = getelementptr inbounds nuw i8, ptr %75, i32 1
  store ptr %76, ptr %5, align 8, !tbaa !4
  br label %18, !llvm.loop !23

77:                                               ; preds = %18
  call void @llvm.lifetime.end.p0(i64 8, ptr %11) #9
  call void @llvm.lifetime.end.p0(i64 4, ptr %10) #9
  call void @llvm.lifetime.end.p0(i64 8, ptr %9) #9
  ret void
}

; Function Attrs: nounwind uwtable
define internal void @vp3_v_loop_filter_8_c(ptr noundef %0, i64 noundef %1, ptr noundef %2) #0 {
  %4 = alloca ptr, align 8
  %5 = alloca i64, align 8
  %6 = alloca ptr, align 8
  store ptr %0, ptr %4, align 8, !tbaa !4
  store i64 %1, ptr %5, align 8, !tbaa !9
  store ptr %2, ptr %6, align 8, !tbaa !21
  %7 = load ptr, ptr %4, align 8, !tbaa !4
  %8 = load i64, ptr %5, align 8, !tbaa !9
  %9 = load ptr, ptr %6, align 8, !tbaa !21
  call void @vp3_v_loop_filter_c(ptr noundef %7, i64 noundef %8, ptr noundef %9, i32 noundef 8)
  ret void
}